target datalayout = "e-m:e-p270:32:32-p271:32:32-p272:64:64-i64:64-i128:128-f80:128-n8:16:32:64-S128"
target triple = "x86_64-pc-linux-gnu"

%struct.MinRegMan_t_ = type { i32, i32, i32, i32, i32, i32, i32, i32, i32, i32, i32, ptr, i32, i32, i32, i32, i32, i32, i32, i32, i32, ptr, ptr, ptr, ptr, ptr, ptr, ptr, ptr, ptr, i32 }
%struct.Vec_Int_t_ = type { i32, i32, ptr }
%struct.Vec_Ptr_t_ = type { i32, i32, ptr }
%struct.InitConstraint_t_ = type { ptr, %struct.Vec_Int_t_, %struct.Vec_Int_t_ }

@pManMR = external global ptr, align 8

; Function Attrs: inlinehint nounwind uwtable
define internal ptr @Vec_PtrEntry(ptr noundef %0, i32 noundef %1) #2 {
  %3 = alloca ptr, align 8
  %4 = alloca i32, align 4
  store ptr %0, ptr %3, align 8, !tbaa !39
  store i32 %1, ptr %4, align 4, !tbaa !19
  %5 = load ptr, ptr %3, align 8, !tbaa !39
  %6 = getelementptr inbounds nuw %struct.Vec_Ptr_t_, ptr %5, i32 0, i32 2
  %7 = load ptr, ptr %6, align 8, !tbaa !55
  %8 = load i32, ptr %4, align 4, !tbaa !19
  %9 = sext i32 %8 to i64
  %10 = getelementptr inbounds ptr, ptr %7, i64 %9
  %11 = load ptr, ptr %10, align 8, !tbaa !57
  ret ptr %11
}

; Function Attrs: inlinehint nounwind uwtable
define internal i32 @Vec_PtrSize(ptr noundef %0) #2 {
  %2 = alloca ptr, align 8
  store ptr %0, ptr %2, align 8, !tbaa !39
  %3 = load ptr, ptr %2, align 8, !tbaa !39
  %4 = getelementptr inbounds nuw %struct.Vec_Ptr_t_, ptr %3, i32 0, i32 1
  %5 = load i32, ptr %4, align 4, !tbaa !49
  ret i32 %5
}

; Function Attrs: nounwind uwtable
define void @Abc_FlowRetime_RemoveInitBias() #0 {
  %1 = alloca ptr, align 8
  %2 = alloca ptr, align 8
  %3 = alloca i32, align 4
  call void @llvm.lifetime.start.p0(i64 8, ptr %1) #10
  call void @llvm.lifetime.start.p0(i64 8, ptr %2) #10
  call void @llvm.lifetime.start.p0(i64 4, ptr %3) #10
  store i32 0, ptr %3, align 4, !tbaa !19
  br label %4

4:                                                ; preds = %30, %0
  %5 = load i32, ptr %3, align 4, !tbaa !19
  %6 = load ptr, ptr @pManMR, align 8, !tbaa !8
  %7 = getelementptr inbounds nuw %struct.MinRegMan_t_, ptr %6, i32 0, i32 26
  %8 = load ptr, ptr %7, align 8, !tbaa !95
  %9 = call i32 @Vec_PtrSize(ptr noundef %8)
  %10 = icmp slt i32 %5, %9
  br i1 %10, label %11, label %17

11:                                               ; preds = %4
  %12 = load ptr, ptr @pManMR, align 8, !tbaa !8
  %13 = getelementptr inbounds nuw %struct.MinRegMan_t_, ptr %12, i32 0, i32 26
  %14 = load ptr, ptr %13, align 8, !tbaa !95
  %15 = load i32, ptr %3, align 4, !tbaa !19
  %16 = call ptr @Vec_PtrEntry(ptr noundef %14, i32 noundef %15)
  store ptr %16, ptr %2, align 8, !tbaa !88
  br label %17

17:                                               ; preds = %11, %4
  %18 = phi i1 [ false, %4 ], [ true, %11 ]
  br i1 %18, label %19, label %33

19:                                               ; preds = %17
  %20 = load ptr, ptr %2, align 8, !tbaa !88
  %21 = getelementptr inbounds nuw %struct.InitConstraint_t_, ptr %20, i32 0, i32 0
  %22 = load ptr, ptr %21, align 8, !tbaa !93
  store ptr %22, ptr %1, align 8, !tbaa !34
  %23 = load ptr, ptr %2, align 8, !tbaa !88
  %24 = getelementptr inbounds nuw %struct.InitConstraint_t_, ptr %23, i32 0, i32 0
  store ptr null, ptr %24, align 8, !tbaa !93
  %25 = load ptr, ptr %1, align 8, !tbaa !34
  %26 = icmp ne ptr %25, null
  br i1 %26, label %27, label %29

27:                                               ; preds = %19
  %28 = load ptr, ptr %1, align 8, !tbaa !34
  call void @Abc_NtkDeleteObj(ptr noundef %28)
  br label %29

29:                                               ; preds = %27, %19
  br label %30

30:                                               ; preds = %29
  %31 = load i32, ptr %3, align 4, !tbaa !19
  %32 = add nsw i32 %31, 1
  store i32 %32, ptr %3, align 4, !tbaa !19
  br label %4, !llvm.loop !105

33:                                               ; preds = %17
  call void @llvm.lifetime.end.p0(i64 4, ptr %3) #10
  call void @llvm.lifetime.end.p0(i64 8, ptr %2) #10
  call void @llvm.lifetime.end.p0(i64 8, ptr %1) #10
  ret void
}