; Function Attrs: nounwind uwtable
define void @Abc_FlowRetime_RemoveInitBias() local_unnamed_addr #0 {
  %1 = load ptr, ptr @pManMR, align 8, !tbaa !3
  %2 = getelementptr inbounds nuw i8, ptr %1, i64 136
  %3 = load ptr, ptr %2, align 8, !tbaa !103
  %4 = getelementptr i8, ptr %3, i64 4
  %.val8 = load i32, ptr %4, align 4, !tbaa !33
  %5 = icmp sgt i32 %.val8, 0
  br i1 %5, label %.lr.ph, label %.critedge

.lr.ph:                                           ; preds = %0, %13
  %6 = phi ptr [ %14, %13 ], [ %1, %0 ]
  %indvars.iv = phi i64 [ %indvars.iv.next, %13 ], [ 0, %0 ]
  %7 = phi ptr [ %16, %13 ], [ %3, %0 ]
  %8 = getelementptr i8, ptr %7, i64 8
  %.val7 = load ptr, ptr %8, align 8, !tbaa !41
  %9 = getelementptr inbounds nuw ptr, ptr %.val7, i64 %indvars.iv
  %10 = load ptr, ptr %9, align 8, !tbaa !42
  %11 = load ptr, ptr %10, align 8, !tbaa !101
  store ptr null, ptr %10, align 8, !tbaa !101
  %.not = icmp eq ptr %11, null
  br i1 %.not, label %13, label %12

12:                                               ; preds = %.lr.ph
  tail call void @Abc_NtkDeleteObj(ptr noundef nonnull %11) #18
  %.pre = load ptr, ptr @pManMR, align 8, !tbaa !3
  br label %13

13:                                               ; preds = %.lr.ph, %12
  %14 = phi ptr [ %6, %.lr.ph ], [ %.pre, %12 ]
  %indvars.iv.next = add nuw nsw i64 %indvars.iv, 1
  %15 = getelementptr inbounds nuw i8, ptr %14, i64 136
  %16 = load ptr, ptr %15, align 8, !tbaa !103
  %17 = getelementptr i8, ptr %16, i64 4
  %.val = load i32, ptr %17, align 4, !tbaa !33
  %18 = sext i32 %.val to i64
  %19 = icmp slt i64 %indvars.iv.next, %18
  br i1 %19, label %.lr.ph, label %.critedge, !llvm.loop !105

.critedge:                                        ; preds = %13, %0
  ret void
}